; Function Attrs: uwtable
define noundef i32 @_ZThn16_NK25FilterTextureDefragPlugin16getPreConditionsEPK7QAction(ptr noundef %0, ptr noundef %1) unnamed_addr #13 align 2 {
  %3 = load ptr, ptr %0, align 8
  %4 = getelementptr inbounds i8, ptr %3, i64 144
  %5 = load ptr, ptr %4, align 8
  %6 = tail call noundef i32 %5(ptr noundef nonnull align 8 dereferenceable(64) %0, ptr noundef %1)
  %cond.i = icmp eq i32 %6, 0
  %..i = select i1 %cond.i, i32 2097152, i32 0
  ret i32 %..i
}